target datalayout = "e-m:e-p270:32:32-p271:32:32-p272:64:64-i64:64-i128:128-f80:128-n8:16:32:64-S128"
target triple = "x86_64-pc-linux-gnu"

%struct.QemuMutex = type { %union.pthread_mutex_t, i8 }
%union.pthread_mutex_t = type { %struct.__pthread_mutex_s }
%struct.__pthread_mutex_s = type { i32, i32, i32, i32, i32, i16, i16, %struct.__pthread_internal_list }
%struct.__pthread_internal_list = type { ptr, ptr }
%struct.QemuLockable = type { ptr, ptr, ptr }
%struct.Job = type { ptr, ptr, ptr, i8, i8, ptr, ptr, %struct.ProgressMeter, ptr, i32, i32, %struct.QEMUTimer, i32, i8, i8, i8, i8, i8, i8, i32, ptr, %struct.NotifierList, %struct.NotifierList, %struct.NotifierList, %struct.NotifierList, %struct.NotifierList, %struct.anon.1, ptr, %struct.anon.2 }
%struct.ProgressMeter = type { i64, i64, %struct.QemuMutex }
%struct.QEMUTimer = type { i64, ptr, ptr, ptr, ptr, i32, i32 }
%struct.NotifierList = type { %struct.anon.0 }
%struct.anon.0 = type { ptr }
%struct.anon.1 = type { ptr, ptr }
%struct.anon.2 = type { ptr, ptr }

@job_mutex = dso_local global %struct.QemuMutex zeroinitializer, align 8
@.str = private unnamed_addr constant [14 x i8] c"../qemu/job.c\00", align 1
@.str.5 = private unnamed_addr constant [37 x i8] c"job->cancelled || !job->force_cancel\00", align 1
@__PRETTY_FUNCTION__.job_is_cancelled_locked = private unnamed_addr constant [37 x i8] c"_Bool job_is_cancelled_locked(Job *)\00", align 1

; Function Attrs: inlinehint nounwind sspstrong uwtable
define internal void @qemu_lockable_unlock(ptr noundef %0) #7 {
  %2 = alloca ptr, align 8
  store ptr %0, ptr %2, align 8
  %3 = load ptr, ptr %2, align 8
  %4 = getelementptr inbounds nuw %struct.QemuLockable, ptr %3, i32 0, i32 2
  %5 = load ptr, ptr %4, align 8
  %6 = load ptr, ptr %2, align 8
  %7 = getelementptr inbounds nuw %struct.QemuLockable, ptr %6, i32 0, i32 0
  %8 = load ptr, ptr %7, align 8
  call void %5(ptr noundef %8)
  ret void
}

; Function Attrs: inlinehint nounwind sspstrong uwtable
define internal void @qemu_lockable_auto_unlock(ptr noundef %0) #7 {
  %2 = alloca ptr, align 8
  store ptr %0, ptr %2, align 8
  %3 = load ptr, ptr %2, align 8
  %4 = icmp ne ptr %3, null
  br i1 %4, label %5, label %7

5:                                                ; preds = %1
  %6 = load ptr, ptr %2, align 8
  call void @qemu_lockable_unlock(ptr noundef %6)
  br label %7

7:                                                ; preds = %5, %1
  ret void
}

; Function Attrs: inlinehint nounwind sspstrong uwtable
define internal void @glib_autoptr_clear_QemuLockable(ptr noundef %0) #7 {
  %2 = alloca ptr, align 8
  store ptr %0, ptr %2, align 8
  %3 = load ptr, ptr %2, align 8
  %4 = icmp ne ptr %3, null
  br i1 %4, label %5, label %7

5:                                                ; preds = %1
  %6 = load ptr, ptr %2, align 8
  call void @qemu_lockable_auto_unlock(ptr noundef %6)
  br label %7

7:                                                ; preds = %5, %1
  ret void
}

; Function Attrs: inlinehint nounwind sspstrong uwtable
define internal void @qemu_lockable_lock(ptr noundef %0) #7 {
  %2 = alloca ptr, align 8
  store ptr %0, ptr %2, align 8
  %3 = load ptr, ptr %2, align 8
  %4 = getelementptr inbounds nuw %struct.QemuLockable, ptr %3, i32 0, i32 1
  %5 = load ptr, ptr %4, align 8
  %6 = load ptr, ptr %2, align 8
  %7 = getelementptr inbounds nuw %struct.QemuLockable, ptr %6, i32 0, i32 0
  %8 = load ptr, ptr %7, align 8
  call void %5(ptr noundef %8)
  ret void
}

; Function Attrs: inlinehint nounwind sspstrong uwtable
define internal void @glib_autoptr_cleanup_QemuLockable(ptr noundef %0) #7 {
  %2 = alloca ptr, align 8
  store ptr %0, ptr %2, align 8
  %3 = load ptr, ptr %2, align 8
  %4 = load ptr, ptr %3, align 8
  call void @glib_autoptr_clear_QemuLockable(ptr noundef %4)
  ret void
}

; Function Attrs: nounwind sspstrong uwtable
define dso_local zeroext i1 @job_is_cancelled_locked(ptr noundef %0) #0 {
  %2 = alloca ptr, align 8
  store ptr %0, ptr %2, align 8
  %3 = load ptr, ptr %2, align 8
  %4 = getelementptr inbounds nuw %struct.Job, ptr %3, i32 0, i32 16
  %5 = load i8, ptr %4, align 1, !range !7, !noundef !8
  %6 = trunc i8 %5 to i1
  br i1 %6, label %12, label %7

7:                                                ; preds = %1
  %8 = load ptr, ptr %2, align 8
  %9 = getelementptr inbounds nuw %struct.Job, ptr %8, i32 0, i32 17
  %10 = load i8, ptr %9, align 8, !range !7, !noundef !8
  %11 = trunc i8 %10 to i1
  br i1 %11, label %13, label %12

12:                                               ; preds = %7, %1
  br label %14

13:                                               ; preds = %7
  call void @__assert_fail(ptr noundef @.str.5, ptr noundef @.str, i32 noundef 250, ptr noundef @__PRETTY_FUNCTION__.job_is_cancelled_locked) #20
  unreachable

14:                                               ; preds = %12
  %15 = load ptr, ptr %2, align 8
  %16 = getelementptr inbounds nuw %struct.Job, ptr %15, i32 0, i32 17
  %17 = load i8, ptr %16, align 8, !range !7, !noundef !8
  %18 = trunc i8 %17 to i1
  ret i1 %18
}

; Function Attrs: inlinehint nounwind sspstrong uwtable
define internal ptr @qemu_lockable_auto_lock(ptr noundef %0) #7 {
  %2 = alloca ptr, align 8
  store ptr %0, ptr %2, align 8
  %3 = load ptr, ptr %2, align 8
  call void @qemu_lockable_lock(ptr noundef %3)
  %4 = load ptr, ptr %2, align 8
  ret ptr %4
}

; Function Attrs: alwaysinline nounwind sspstrong uwtable
define internal ptr @qemu_make_lockable(ptr noundef %0, ptr noundef %1) #8 {
  %3 = alloca ptr, align 8
  %4 = alloca ptr, align 8
  store ptr %0, ptr %3, align 8
  store ptr %1, ptr %4, align 8
  %5 = load ptr, ptr %3, align 8
  %6 = icmp ne ptr %5, null
  br i1 %6, label %7, label %9

7:                                                ; preds = %2
  %8 = load ptr, ptr %4, align 8
  br label %10

9:                                                ; preds = %2
  br label %10

10:                                               ; preds = %9, %7
  %11 = phi ptr [ %8, %7 ], [ null, %9 ]
  ret ptr %11
}

; Function Attrs: nounwind sspstrong uwtable
define dso_local zeroext i1 @job_is_cancelled(ptr noundef %0) #0 {
  %2 = alloca ptr, align 8
  %3 = alloca ptr, align 8
  %4 = alloca %struct.QemuLockable, align 8
  store ptr %0, ptr %2, align 8
  call void @llvm.lifetime.start.p0(i64 8, ptr %3) #16
  %5 = getelementptr inbounds nuw %struct.QemuLockable, ptr %4, i32 0, i32 0
  store ptr @job_mutex, ptr %5, align 8
  %6 = getelementptr inbounds nuw %struct.QemuLockable, ptr %4, i32 0, i32 1
  store ptr @qemu_lockable_mutex_lock, ptr %6, align 8
  %7 = getelementptr inbounds nuw %struct.QemuLockable, ptr %4, i32 0, i32 2
  store ptr @qemu_lockable_mutex_unlock, ptr %7, align 8
  %8 = call ptr @qemu_make_lockable(ptr noundef @job_mutex, ptr noundef %4)
  %9 = call ptr @qemu_lockable_auto_lock(ptr noundef %8)
  store ptr %9, ptr %3, align 8
  %10 = load ptr, ptr %2, align 8
  %11 = call zeroext i1 @job_is_cancelled_locked(ptr noundef %10)
  call void @glib_autoptr_cleanup_QemuLockable(ptr noundef %3)
  call void @llvm.lifetime.end.p0(i64 8, ptr %3) #16
  ret i1 %11
}