; Function Attrs: nounwind sspstrong uwtable
define dso_local zeroext i1 @job_is_cancelled(ptr noundef readonly captures(none) %0) local_unnamed_addr #0 {
  %2 = load atomic i64, ptr @qemu_mutex_lock_func monotonic, align 8
  %3 = inttoptr i64 %2 to ptr
  tail call void %3(ptr noundef nonnull @job_mutex, ptr noundef nonnull @.str.29, i32 noundef 56) #15
  %4 = getelementptr inbounds nuw i8, ptr %0, i64 183
  %5 = load i8, ptr %4, align 1, !range !4, !noundef !5
  %6 = trunc nuw i8 %5 to i1
  %.phi.trans.insert.i = getelementptr inbounds nuw i8, ptr %0, i64 184
  %.pre.i = load i8, ptr %.phi.trans.insert.i, align 8, !range !4
  %.pre3.i = trunc nuw i8 %.pre.i to i1
  %.pre3.not.i = xor i1 %.pre3.i, true
  %brmerge.i = select i1 %6, i1 true, i1 %.pre3.not.i
  br i1 %brmerge.i, label %glib_autoptr_cleanup_QemuLockable.exit, label %7

7:                                                ; preds = %1
  tail call void @__assert_fail(ptr noundef nonnull @.str.5, ptr noundef nonnull @.str, i32 noundef 250, ptr noundef nonnull @__PRETTY_FUNCTION__.job_is_cancelled_locked) #17
  unreachable

glib_autoptr_cleanup_QemuLockable.exit:           ; preds = %1
  %.pre3.mux.i = select i1 %6, i1 %.pre3.i, i1 false
  tail call void @qemu_mutex_unlock_impl(ptr noundef nonnull @job_mutex, ptr noundef nonnull @.str.29, i32 noundef 56) #15
  ret i1 %.pre3.mux.i
}